Archive member included to satisfy reference by file (symbol)

../../../bin/lib/libc.a(stdio.o)
                              main.o (printf)
../../../bin/lib/libc.a(stdlib.o)
                              main.o (malloc)
../../../bin/lib/libc.a(string.o)
                              tinysh.o (strlen)
../../../bin/lib/libc.a(amos.o)
                              main.o (open)

Memory Configuration

Name             Origin             Length             Attributes
*default*        0x0000000000000000 0xffffffffffffffff

Linker script and memory map

                0x0000000000000000                phys = 0x0
                0x0000000010000000                virt = 0x10000000

.text           0x0000000010000000     0x492c load address 0x0000000000000000
 *(.text.entrypoint)
 .text.entrypoint
                0x0000000010000000       0xbc main.o
                0x0000000010000000                entrypoint
 *(.text.*)
 .text.shell_clear
                0x00000000100000bc       0x11 main.o
                0x00000000100000bc                shell_clear
 .text.shell_quit
                0x00000000100000cd       0x16 main.o
                0x00000000100000cd                shell_quit
 .text.shell_create
                0x00000000100000e3       0x4e main.o
                0x00000000100000e3                shell_create
 .text.shell_delete
                0x0000000010000131       0x4e main.o
                0x0000000010000131                shell_delete
 .text.shell_rename
                0x000000001000017f       0x52 main.o
                0x000000001000017f                shell_rename
 .text.shell_copy
                0x00000000100001d1       0x52 main.o
                0x00000000100001d1                shell_copy
 .text.shell_list
                0x0000000010000223       0x9c main.o
                0x0000000010000223                shell_list
 .text.shell_dump
                0x00000000100002bf      0x153 main.o
                0x00000000100002bf                shell_dump
 .text.shell_spawn
                0x0000000010000412      0x114 main.o
                0x0000000010000412                shell_spawn
 .text.shell_kill
                0x0000000010000526       0x6e main.o
                0x0000000010000526                shell_kill
 .text.shell_write
                0x0000000010000594      0x198 main.o
                0x0000000010000594                shell_write
 .text.help_fnt
                0x000000001000072c       0x4d tinysh.o
 .text.start_of_line
                0x0000000010000779       0x43 tinysh.o
 .text.display_child_help
                0x00000000100007bc       0xb1 tinysh.o
 .text.strstart
                0x000000001000086d       0x38 tinysh.o
                0x000000001000086d                strstart
 .text.parse_command
                0x00000000100008a5       0xd4 tinysh.o
 .text.tinysh_char_in
                0x0000000010000979      0x85c tinysh.o
                0x0000000010000979                tinysh_char_in
 .text.tinysh_add_command
                0x00000000100011d5       0x40 tinysh.o
                0x00000000100011d5                tinysh_add_command
 .text.tinysh_set_prompt
                0x0000000010001215       0x45 tinysh.o
                0x0000000010001215                tinysh_set_prompt
 .text.tinysh_get_arg
                0x000000001000125a        0x6 tinysh.o
                0x000000001000125a                tinysh_get_arg
 .text.tinysh_atoxi
                0x0000000010001260       0xa0 tinysh.o
                0x0000000010001260                tinysh_atoxi
                0x0000000010001300                . = ALIGN (0x10)
 *(.data)
 .data          0x0000000010001300      0x160 main.o
                0x0000000010001300                writecmd
                0x0000000010001320                killcmd
                0x0000000010001340                spawncmd
                0x0000000010001360                dumpcmd
                0x0000000010001380                listcmd
                0x00000000100013a0                copycmd
                0x00000000100013c0                renamecmd
                0x00000000100013e0                deletecmd
                0x0000000010001400                createcmd
                0x0000000010001420                quitcmd
                0x0000000010001440                clearcmd
 *fill*         0x0000000010001460       0x20 
 .data          0x0000000010001480       0xc0 tinysh.o
 .data          0x0000000010001540        0x0 ../../../bin/lib/libc.a(stdio.o)
 .data          0x0000000010001540        0x4 ../../../bin/lib/libc.a(stdlib.o)
 .data          0x0000000010001544        0x0 ../../../bin/lib/libc.a(string.o)
 .data          0x0000000010001544        0x0 ../../../bin/lib/libc.a(amos.o)
                0x0000000010001550                . = ALIGN (0x10)
 *fill*         0x0000000010001544        0xc 
 *(.rodata)
 .rodata        0x0000000010001550       0x58 ../../../bin/lib/libc.a(stdio.o)
                0x00000000100015b0                . = ALIGN (0x10)
 *fill*         0x00000000100015a8        0x8 
 *(.rodata.*)
 .rodata.str1.1
                0x00000000100015b0      0x1b9 main.o
 *fill*         0x0000000010001769        0x3 
 .rodata.str1.4
                0x000000001000176c      0x461 main.o
 *fill*         0x0000000010001bcd        0x3 
 .rodata.str1.4
                0x0000000010001bd0       0xdb tinysh.o
 .rodata.str1.1
                0x0000000010001cab       0x81 tinysh.o
 .rodata.str1.1
                0x0000000010001d2c        0x2 ../../../bin/lib/libc.a(stdio.o)
                0x0000000010001d30                . = ALIGN (0x10)
 *fill*         0x0000000010001d2e        0x2 
 *(.eh_frame)
 .eh_frame      0x0000000010001d30      0x43c main.o
 .eh_frame      0x000000001000216c      0x3a4 tinysh.o
 .eh_frame      0x0000000010002510      0x2a0 ../../../bin/lib/libc.a(stdio.o)
 .eh_frame      0x00000000100027b0       0x84 ../../../bin/lib/libc.a(stdlib.o)
 .eh_frame      0x0000000010002834      0x1a0 ../../../bin/lib/libc.a(string.o)
 .eh_frame      0x00000000100029d4      0x25c ../../../bin/lib/libc.a(amos.o)
                0x0000000010002c30                . = ALIGN (0x10)
 *(COMMON)
                0x0000000010002c30                . = ALIGN (0x10)
 *(.bss)
 .bss           0x0000000010002c30        0x0 main.o
 *fill*         0x0000000010002c30       0x10 
 .bss           0x0000000010002c40     0x12d0 tinysh.o
 .bss           0x0000000010003f10        0x0 ../../../bin/lib/libc.a(stdio.o)
 .bss           0x0000000010003f10        0x0 ../../../bin/lib/libc.a(stdlib.o)
 .bss           0x0000000010003f10        0x0 ../../../bin/lib/libc.a(string.o)
 .bss           0x0000000010003f10        0x0 ../../../bin/lib/libc.a(amos.o)
                0x0000000010003f10                . = ALIGN (0x10)
 .text          0x0000000010003f10        0x0 main.o
 .text          0x0000000010003f10        0x0 tinysh.o
 .text          0x0000000010003f10      0x40e ../../../bin/lib/libc.a(stdio.o)
                0x0000000010003f10                printf_putuint
                0x0000000010003fc3                printf_putint
                0x0000000010004008                printf_puthex
                0x00000000100040dc                print
                0x000000001000421f                printf
                0x0000000010004236                getch
                0x0000000010004255                get
                0x00000000100042d4                putchar
                0x00000000100042f1                puts
 .text          0x000000001000431e      0x1c2 ../../../bin/lib/libc.a(stdlib.o)
                0x000000001000431e                malloc
                0x00000000100043df                free
                0x0000000010004468                atoi
 .text          0x00000000100044e0      0x1fb ../../../bin/lib/libc.a(string.o)
                0x00000000100044e0                strlen
                0x00000000100044fa                strrchr
                0x0000000010004524                strcmp
                0x0000000010004546                strncmp
                0x00000000100045a0                strcpy
                0x00000000100045be                strncpy
                0x00000000100045f8                memset
                0x000000001000461a                memcpy
                0x0000000010004642                memcmp
                0x0000000010004681                strstr
 .text          0x00000000100046db      0x251 ../../../bin/lib/libc.a(amos.o)
                0x00000000100046db                open
                0x00000000100046f8                close
                0x0000000010004711                clone
                0x000000001000472a                read
                0x000000001000474f                write
                0x0000000010004774                seek
                0x0000000010004795                control
                0x00000000100047b6                create
                0x00000000100047cf                delete
                0x00000000100047e8                rename
                0x0000000010004809                copy
                0x000000001000482a                list
                0x000000001000485d                mount
                0x0000000010004882                unmount
                0x000000001000489b                morecore
                0x00000000100048b4                exit
                0x00000000100048bc                spawn
                0x00000000100048d9                kill
                0x00000000100048f2                sleep
                0x00000000100048fa                wake
                0x0000000010004913                wait
LOAD main.o
LOAD tinysh.o
LOAD ../../../bin/lib/libc.a
OUTPUT(../../../bin/apps/shell.bin binary)

.comment        0x0000000000000000       0xde
 .comment       0x0000000000000000       0x25 main.o
 .comment       0x0000000000000025       0x25 tinysh.o
 .comment       0x000000000000004a       0x25 ../../../bin/lib/libc.a(stdio.o)
 .comment       0x000000000000006f       0x25 ../../../bin/lib/libc.a(stdlib.o)
 .comment       0x0000000000000094       0x25 ../../../bin/lib/libc.a(string.o)
 .comment       0x00000000000000b9       0x25 ../../../bin/lib/libc.a(amos.o)

.note.GNU-stack
                0x0000000000000000        0x0
 .note.GNU-stack
                0x0000000000000000        0x0 main.o
 .note.GNU-stack
                0x0000000000000000        0x0 tinysh.o
 .note.GNU-stack
                0x0000000000000000        0x0 ../../../bin/lib/libc.a(stdio.o)
 .note.GNU-stack
                0x0000000000000000        0x0 ../../../bin/lib/libc.a(stdlib.o)
 .note.GNU-stack
                0x0000000000000000        0x0 ../../../bin/lib/libc.a(string.o)
 .note.GNU-stack
                0x0000000000000000        0x0 ../../../bin/lib/libc.a(amos.o)
